target datalayout = "e-m:e-p270:32:32-p271:32:32-p272:64:64-i64:64-i128:128-f80:128-n8:16:32:64-S128"
target triple = "x86_64-pc-linux-gnu"

@.str.5 = private unnamed_addr constant [6 x i8] c"FILE*\00", align 1
@.str.16 = private unnamed_addr constant [29 x i8] c"attempt to use a closed file\00", align 1
@.str.18 = private unnamed_addr constant [7 x i8] c"%s: %s\00", align 1
@.str.40 = private unnamed_addr constant [2 x i8] c"r\00", align 1

; Function Attrs: nounwind uwtable
define internal ptr @tofile(ptr noundef %0) #0 {
  %2 = alloca ptr, align 8
  %3 = alloca ptr, align 8
  store ptr %0, ptr %2, align 8, !tbaa !4
  call void @llvm.lifetime.start.p0(i64 8, ptr %3) #6
  %4 = load ptr, ptr %2, align 8, !tbaa !4
  %5 = call ptr @luaL_checkudata(ptr noundef %4, i32 noundef 1, ptr noundef @.str.5)
  store ptr %5, ptr %3, align 8, !tbaa !12
  %6 = load ptr, ptr %3, align 8, !tbaa !12
  %7 = load ptr, ptr %6, align 8, !tbaa !9
  %8 = icmp eq ptr %7, null
  br i1 %8, label %9, label %12

9:                                                ; preds = %1
  %10 = load ptr, ptr %2, align 8, !tbaa !4
  %11 = call i32 (ptr, ptr, ...) @luaL_error(ptr noundef %10, ptr noundef @.str.16)
  br label %12

12:                                               ; preds = %9, %1
  %13 = load ptr, ptr %3, align 8, !tbaa !12
  %14 = load ptr, ptr %13, align 8, !tbaa !9
  call void @llvm.lifetime.end.p0(i64 8, ptr %3) #6
  ret ptr %14
}

; Function Attrs: nounwind uwtable
define internal void @aux_lines(ptr noundef %0, i32 noundef %1, i32 noundef %2) #0 {
  %4 = alloca ptr, align 8
  %5 = alloca i32, align 4
  %6 = alloca i32, align 4
  store ptr %0, ptr %4, align 8, !tbaa !4
  store i32 %1, ptr %5, align 4, !tbaa !14
  store i32 %2, ptr %6, align 4, !tbaa !14
  %7 = load ptr, ptr %4, align 8, !tbaa !4
  %8 = load i32, ptr %5, align 4, !tbaa !14
  call void @lua_pushvalue(ptr noundef %7, i32 noundef %8)
  %9 = load ptr, ptr %4, align 8, !tbaa !4
  %10 = load i32, ptr %6, align 4, !tbaa !14
  call void @lua_pushboolean(ptr noundef %9, i32 noundef %10)
  %11 = load ptr, ptr %4, align 8, !tbaa !4
  call void @lua_pushcclosure(ptr noundef %11, ptr noundef @io_readline, i32 noundef 2)
  ret void
}

; Function Attrs: nounwind uwtable
define internal void @fileerror(ptr noundef %0, i32 noundef %1, ptr noundef %2) #0 {
  %4 = alloca ptr, align 8
  %5 = alloca i32, align 4
  %6 = alloca ptr, align 8
  store ptr %0, ptr %4, align 8, !tbaa !4
  store i32 %1, ptr %5, align 4, !tbaa !14
  store ptr %2, ptr %6, align 8, !tbaa !16
  %7 = load ptr, ptr %4, align 8, !tbaa !4
  %8 = load ptr, ptr %6, align 8, !tbaa !16
  %9 = call ptr @__errno_location() #7
  %10 = load i32, ptr %9, align 4, !tbaa !14
  %11 = call ptr @strerror(i32 noundef %10) #6
  %12 = call ptr (ptr, ptr, ...) @lua_pushfstring(ptr noundef %7, ptr noundef @.str.18, ptr noundef %8, ptr noundef %11)
  %13 = load ptr, ptr %4, align 8, !tbaa !4
  %14 = load i32, ptr %5, align 4, !tbaa !14
  %15 = load ptr, ptr %4, align 8, !tbaa !4
  %16 = call ptr @lua_tolstring(ptr noundef %15, i32 noundef -1, ptr noundef null)
  %17 = call i32 @luaL_argerror(ptr noundef %13, i32 noundef %14, ptr noundef %16)
  ret void
}

; Function Attrs: nounwind uwtable
define internal ptr @newfile(ptr noundef %0) #0 {
  %2 = alloca ptr, align 8
  %3 = alloca ptr, align 8
  store ptr %0, ptr %2, align 8, !tbaa !4
  call void @llvm.lifetime.start.p0(i64 8, ptr %3) #6
  %4 = load ptr, ptr %2, align 8, !tbaa !4
  %5 = call ptr @lua_newuserdata(ptr noundef %4, i64 noundef 8)
  store ptr %5, ptr %3, align 8, !tbaa !12
  %6 = load ptr, ptr %3, align 8, !tbaa !12
  store ptr null, ptr %6, align 8, !tbaa !9
  %7 = load ptr, ptr %2, align 8, !tbaa !4
  call void @lua_getfield(ptr noundef %7, i32 noundef -10000, ptr noundef @.str.5)
  %8 = load ptr, ptr %2, align 8, !tbaa !4
  %9 = call i32 @lua_setmetatable(ptr noundef %8, i32 noundef -2)
  %10 = load ptr, ptr %3, align 8, !tbaa !12
  call void @llvm.lifetime.end.p0(i64 8, ptr %3) #6
  ret ptr %10
}

; Function Attrs: nounwind uwtable
define internal i32 @f_lines(ptr noundef %0) #0 {
  %2 = alloca ptr, align 8
  store ptr %0, ptr %2, align 8, !tbaa !4
  %3 = load ptr, ptr %2, align 8, !tbaa !4
  %4 = call ptr @tofile(ptr noundef %3)
  %5 = load ptr, ptr %2, align 8, !tbaa !4
  call void @aux_lines(ptr noundef %5, i32 noundef 1, i32 noundef 0)
  ret i32 1
}

; Function Attrs: nounwind uwtable
define internal i32 @io_lines(ptr noundef %0) #0 {
  %2 = alloca i32, align 4
  %3 = alloca ptr, align 8
  %4 = alloca ptr, align 8
  %5 = alloca ptr, align 8
  store ptr %0, ptr %3, align 8, !tbaa !4
  %6 = load ptr, ptr %3, align 8, !tbaa !4
  %7 = call i32 @lua_type(ptr noundef %6, i32 noundef 1)
  %8 = icmp sle i32 %7, 0
  br i1 %8, label %9, label %13

9:                                                ; preds = %1
  %10 = load ptr, ptr %3, align 8, !tbaa !4
  call void @lua_rawgeti(ptr noundef %10, i32 noundef -10001, i32 noundef 1)
  %11 = load ptr, ptr %3, align 8, !tbaa !4
  %12 = call i32 @f_lines(ptr noundef %11)
  store i32 %12, ptr %2, align 4
  br label %31

13:                                               ; preds = %1
  call void @llvm.lifetime.start.p0(i64 8, ptr %4) #6
  %14 = load ptr, ptr %3, align 8, !tbaa !4
  %15 = call ptr @luaL_checklstring(ptr noundef %14, i32 noundef 1, ptr noundef null)
  store ptr %15, ptr %4, align 8, !tbaa !16
  call void @llvm.lifetime.start.p0(i64 8, ptr %5) #6
  %16 = load ptr, ptr %3, align 8, !tbaa !4
  %17 = call ptr @newfile(ptr noundef %16)
  store ptr %17, ptr %5, align 8, !tbaa !12
  %18 = load ptr, ptr %4, align 8, !tbaa !16
  %19 = call noalias ptr @fopen(ptr noundef %18, ptr noundef @.str.40)
  %20 = load ptr, ptr %5, align 8, !tbaa !12
  store ptr %19, ptr %20, align 8, !tbaa !9
  %21 = load ptr, ptr %5, align 8, !tbaa !12
  %22 = load ptr, ptr %21, align 8, !tbaa !9
  %23 = icmp eq ptr %22, null
  br i1 %23, label %24, label %27

24:                                               ; preds = %13
  %25 = load ptr, ptr %3, align 8, !tbaa !4
  %26 = load ptr, ptr %4, align 8, !tbaa !16
  call void @fileerror(ptr noundef %25, i32 noundef 1, ptr noundef %26)
  br label %27

27:                                               ; preds = %24, %13
  %28 = load ptr, ptr %3, align 8, !tbaa !4
  %29 = load ptr, ptr %3, align 8, !tbaa !4
  %30 = call i32 @lua_gettop(ptr noundef %29)
  call void @aux_lines(ptr noundef %28, i32 noundef %30, i32 noundef 1)
  store i32 1, ptr %2, align 4
  call void @llvm.lifetime.end.p0(i64 8, ptr %5) #6
  call void @llvm.lifetime.end.p0(i64 8, ptr %4) #6
  br label %31

31:                                               ; preds = %27, %9
  %32 = load i32, ptr %2, align 4
  ret i32 %32
}