; Function Attrs: nounwind uwtable
define internal noundef i32 @io_lines(ptr noundef %0) #0 {
  %2 = tail call i32 @lua_type(ptr noundef %0, i32 noundef 1) #9
  %3 = icmp slt i32 %2, 1
  br i1 %3, label %4, label %10

4:                                                ; preds = %1
  tail call void @lua_rawgeti(ptr noundef %0, i32 noundef -10001, i32 noundef 1) #9
  %5 = tail call ptr @luaL_checkudata(ptr noundef %0, i32 noundef 1, ptr noundef nonnull @.str.5) #9
  %6 = load ptr, ptr %5, align 8, !tbaa !4
  %7 = icmp eq ptr %6, null
  br i1 %7, label %8, label %f_lines.exit

8:                                                ; preds = %4
  %9 = tail call i32 (ptr, ptr, ...) @luaL_error(ptr noundef %0, ptr noundef nonnull @.str.16) #9
  br label %f_lines.exit

10:                                               ; preds = %1
  %11 = tail call ptr @luaL_checklstring(ptr noundef %0, i32 noundef 1, ptr noundef null) #9
  %12 = tail call ptr @lua_newuserdata(ptr noundef %0, i64 noundef 8) #9
  store ptr null, ptr %12, align 8, !tbaa !4
  tail call void @lua_getfield(ptr noundef %0, i32 noundef -10000, ptr noundef nonnull @.str.5) #9
  %13 = tail call i32 @lua_setmetatable(ptr noundef %0, i32 noundef -2) #9
  %14 = tail call noalias ptr @fopen(ptr noundef %11, ptr noundef nonnull @.str.40)
  store ptr %14, ptr %12, align 8, !tbaa !4
  %15 = icmp eq ptr %14, null
  br i1 %15, label %16, label %23

16:                                               ; preds = %10
  %17 = tail call ptr @__errno_location() #10
  %18 = load i32, ptr %17, align 4, !tbaa !9
  %19 = tail call ptr @strerror(i32 noundef %18) #9
  %20 = tail call ptr (ptr, ptr, ...) @lua_pushfstring(ptr noundef %0, ptr noundef nonnull @.str.18, ptr noundef %11, ptr noundef %19) #9
  %21 = tail call ptr @lua_tolstring(ptr noundef %0, i32 noundef -1, ptr noundef null) #9
  %22 = tail call i32 @luaL_argerror(ptr noundef %0, i32 noundef 1, ptr noundef %21) #9
  br label %23

23:                                               ; preds = %16, %10
  %24 = tail call i32 @lua_gettop(ptr noundef %0) #9
  br label %f_lines.exit

f_lines.exit:                                     ; preds = %8, %4, %23
  %.sink12 = phi i32 [ %24, %23 ], [ 1, %4 ], [ 1, %8 ]
  %.sink = phi i32 [ 1, %23 ], [ 0, %4 ], [ 0, %8 ]
  tail call void @lua_pushvalue(ptr noundef %0, i32 noundef %.sink12) #9
  tail call void @lua_pushboolean(ptr noundef %0, i32 noundef %.sink) #9
  tail call void @lua_pushcclosure(ptr noundef %0, ptr noundef nonnull @io_readline, i32 noundef 2) #9
  ret i32 1
}